target datalayout = "e-m:e-p270:32:32-p271:32:32-p272:64:64-i64:64-i128:128-f80:128-n8:16:32:64-S128"
target triple = "x86_64-pc-linux-gnu"

%struct.expert_field = type { i32, i32 }
%struct._packet_info = type { ptr, ptr, i32, i32, %struct.nstime_t, %struct.nstime_t, %struct.nstime_t, i8, ptr, ptr, ptr, ptr, %struct._address, %struct._address, %struct._address, %struct._address, %struct._address, %struct._address, i32, ptr, i8, [3 x i8], %struct.anon, i32, i32, i32, i32, ptr, i8, ptr, ptr, i16, i16, i32, i32, i16, i32, i32, ptr, ptr, ptr, i8, i8, i16, i16, i16, i32, i16, i16, ptr, ptr, ptr, ptr, ptr, i32, i32 }
%struct.nstime_t = type { i64, i32 }
%struct._address = type { i32, i32, ptr, ptr }
%struct.anon = type { i8, [3 x i8] }

@ei_bssgp_missing_mandatory_element = internal global %struct.expert_field zeroinitializer, align 4
@.str.6 = private unnamed_addr constant [71 x i8] c"Missing Mandatory element (0x%02x) %s%s, rest of dissection is suspect\00", align 1
@.str.7 = private unnamed_addr constant [1 x i8] zeroinitializer, align 1
@ei_bssgp_extraneous_data = internal global %struct.expert_field zeroinitializer, align 4
@.str.756 = private unnamed_addr constant [31 x i8] c" - Destination Cell Identifier\00", align 1
@.str.757 = private unnamed_addr constant [26 x i8] c" - Source Cell Identifier\00", align 1

; Function Attrs: null_pointer_is_valid sspstrong uwtable
define internal void @bssgp_ran_inf_app_err(ptr noundef %0, ptr noundef %1, ptr noundef %2, i32 noundef %3, i32 noundef %4) #1 {
  %6 = alloca ptr, align 8
  %7 = alloca ptr, align 8
  %8 = alloca ptr, align 8
  %9 = alloca i32, align 4
  %10 = alloca i32, align 4
  %11 = alloca i32, align 4
  %12 = alloca i32, align 4
  %13 = alloca i32, align 4
  store ptr %0, ptr %6, align 8
  store ptr %1, ptr %7, align 8
  store ptr %2, ptr %8, align 8
  store i32 %3, ptr %9, align 4
  store i32 %4, ptr %10, align 4
  call void @llvm.lifetime.start.p0(i64 4, ptr %11) #4
  call void @llvm.lifetime.start.p0(i64 4, ptr %12) #4
  call void @llvm.lifetime.start.p0(i64 4, ptr %13) #4
  %14 = load i32, ptr %9, align 4
  store i32 %14, ptr %11, align 4
  %15 = load i32, ptr %10, align 4
  store i32 %15, ptr %13, align 4
  %16 = load ptr, ptr %8, align 8
  %17 = getelementptr inbounds nuw %struct._packet_info, ptr %16, i32 0, i32 22
  %18 = load i8, ptr %17, align 4
  %19 = and i8 %18, -2
  %20 = or i8 %19, 1
  store i8 %20, ptr %17, align 4
  %21 = load i32, ptr %13, align 4
  %22 = icmp sgt i32 %21, 0
  br i1 %22, label %23, label %39

23:                                               ; preds = %5
  %24 = load ptr, ptr %6, align 8
  %25 = load ptr, ptr %7, align 8
  %26 = load ptr, ptr %8, align 8
  %27 = load i32, ptr %11, align 4
  %28 = load i32, ptr %13, align 4
  %29 = call zeroext i16 @elem_telv(ptr noundef %24, ptr noundef %25, ptr noundef %26, i8 noundef zeroext 84, i32 noundef 13, i32 noundef 62, i32 noundef %27, i32 noundef %28, ptr noundef @.str.756)
  %30 = zext i16 %29 to i32
  store i32 %30, ptr %12, align 4
  %31 = icmp ugt i32 %30, 0
  br i1 %31, label %32, label %39

32:                                               ; preds = %23
  %33 = load i32, ptr %12, align 4
  %34 = load i32, ptr %11, align 4
  %35 = add i32 %34, %33
  store i32 %35, ptr %11, align 4
  %36 = load i32, ptr %12, align 4
  %37 = load i32, ptr %13, align 4
  %38 = sub i32 %37, %36
  store i32 %38, ptr %13, align 4
  br label %46

39:                                               ; preds = %23, %5
  %40 = load ptr, ptr %7, align 8
  %41 = load ptr, ptr %8, align 8
  %42 = load ptr, ptr %6, align 8
  %43 = load i32, ptr %11, align 4
  %44 = call ptr @get_gsm_a_msg_string(i32 noundef 13, i32 noundef 62)
  %45 = call ptr (ptr, ptr, ptr, ptr, i32, i32, ptr, ...) @proto_tree_add_expert_format(ptr noundef %40, ptr noundef %41, ptr noundef @ei_bssgp_missing_mandatory_element, ptr noundef %42, i32 noundef %43, i32 noundef 0, ptr noundef @.str.6, i32 noundef 84, ptr noundef %44, ptr noundef @.str.756)
  br label %46

46:                                               ; preds = %39, %32
  %47 = load i32, ptr %13, align 4
  %48 = icmp sgt i32 %47, 0
  br i1 %48, label %49, label %65

49:                                               ; preds = %46
  %50 = load ptr, ptr %6, align 8
  %51 = load ptr, ptr %7, align 8
  %52 = load ptr, ptr %8, align 8
  %53 = load i32, ptr %11, align 4
  %54 = load i32, ptr %13, align 4
  %55 = call zeroext i16 @elem_telv(ptr noundef %50, ptr noundef %51, ptr noundef %52, i8 noundef zeroext 84, i32 noundef 13, i32 noundef 62, i32 noundef %53, i32 noundef %54, ptr noundef @.str.757)
  %56 = zext i16 %55 to i32
  store i32 %56, ptr %12, align 4
  %57 = icmp ugt i32 %56, 0
  br i1 %57, label %58, label %65

58:                                               ; preds = %49
  %59 = load i32, ptr %12, align 4
  %60 = load i32, ptr %11, align 4
  %61 = add i32 %60, %59
  store i32 %61, ptr %11, align 4
  %62 = load i32, ptr %12, align 4
  %63 = load i32, ptr %13, align 4
  %64 = sub i32 %63, %62
  store i32 %64, ptr %13, align 4
  br label %72

65:                                               ; preds = %49, %46
  %66 = load ptr, ptr %7, align 8
  %67 = load ptr, ptr %8, align 8
  %68 = load ptr, ptr %6, align 8
  %69 = load i32, ptr %11, align 4
  %70 = call ptr @get_gsm_a_msg_string(i32 noundef 13, i32 noundef 62)
  %71 = call ptr (ptr, ptr, ptr, ptr, i32, i32, ptr, ...) @proto_tree_add_expert_format(ptr noundef %66, ptr noundef %67, ptr noundef @ei_bssgp_missing_mandatory_element, ptr noundef %68, i32 noundef %69, i32 noundef 0, ptr noundef @.str.6, i32 noundef 84, ptr noundef %70, ptr noundef @.str.757)
  br label %72

72:                                               ; preds = %65, %58
  %73 = load i32, ptr %13, align 4
  %74 = icmp sgt i32 %73, 0
  br i1 %74, label %75, label %91

75:                                               ; preds = %72
  %76 = load ptr, ptr %6, align 8
  %77 = load ptr, ptr %7, align 8
  %78 = load ptr, ptr %8, align 8
  %79 = load i32, ptr %11, align 4
  %80 = load i32, ptr %13, align 4
  %81 = call zeroext i16 @elem_telv(ptr noundef %76, ptr noundef %77, ptr noundef %78, i8 noundef zeroext 89, i32 noundef 13, i32 noundef 55, i32 noundef %79, i32 noundef %80, ptr noundef null)
  %82 = zext i16 %81 to i32
  store i32 %82, ptr %12, align 4
  %83 = icmp ugt i32 %82, 0
  br i1 %83, label %84, label %91

84:                                               ; preds = %75
  %85 = load i32, ptr %12, align 4
  %86 = load i32, ptr %11, align 4
  %87 = add i32 %86, %85
  store i32 %87, ptr %11, align 4
  %88 = load i32, ptr %12, align 4
  %89 = load i32, ptr %13, align 4
  %90 = sub i32 %89, %88
  store i32 %90, ptr %13, align 4
  br label %98

91:                                               ; preds = %75, %72
  %92 = load ptr, ptr %7, align 8
  %93 = load ptr, ptr %8, align 8
  %94 = load ptr, ptr %6, align 8
  %95 = load i32, ptr %11, align 4
  %96 = call ptr @get_gsm_a_msg_string(i32 noundef 13, i32 noundef 55)
  %97 = call ptr (ptr, ptr, ptr, ptr, i32, i32, ptr, ...) @proto_tree_add_expert_format(ptr noundef %92, ptr noundef %93, ptr noundef @ei_bssgp_missing_mandatory_element, ptr noundef %94, i32 noundef %95, i32 noundef 0, ptr noundef @.str.6, i32 noundef 89, ptr noundef %96, ptr noundef @.str.7)
  br label %98

98:                                               ; preds = %91, %84
  %99 = load i32, ptr %13, align 4
  %100 = icmp ugt i32 %99, 0
  br i1 %100, label %101, label %113

101:                                              ; preds = %98
  %102 = load ptr, ptr %7, align 8
  %103 = load ptr, ptr %8, align 8
  %104 = load ptr, ptr %6, align 8
  %105 = load i32, ptr %11, align 4
  %106 = load i32, ptr %13, align 4
  %107 = sub i32 %106, 0
  %108 = call ptr @proto_tree_add_expert(ptr noundef %102, ptr noundef %103, ptr noundef @ei_bssgp_extraneous_data, ptr noundef %104, i32 noundef %105, i32 noundef %107)
  %109 = load i32, ptr %13, align 4
  %110 = sub i32 %109, 0
  %111 = load i32, ptr %11, align 4
  %112 = add i32 %111, %110
  store i32 %112, ptr %11, align 4
  br label %113

113:                                              ; preds = %101, %98
  call void @llvm.lifetime.end.p0(i64 4, ptr %13) #4
  call void @llvm.lifetime.end.p0(i64 4, ptr %12) #4
  call void @llvm.lifetime.end.p0(i64 4, ptr %11) #4
  ret void
}