; Function Attrs: null_pointer_is_valid sspstrong uwtable
define internal void @bssgp_ran_inf_app_err(ptr noundef %0, ptr noundef %1, ptr noundef %2, i32 noundef %3, i32 noundef %4) #1 {
  %6 = getelementptr inbounds nuw i8, ptr %2, i64 276
  %7 = load i8, ptr %6, align 4
  %8 = or i8 %7, 1
  store i8 %8, ptr %6, align 4
  %9 = icmp sgt i32 %4, 0
  br i1 %9, label %10, label %16

10:                                               ; preds = %5
  %11 = tail call zeroext i16 @elem_telv(ptr noundef %0, ptr noundef %1, ptr noundef %2, i8 noundef zeroext 84, i32 noundef 13, i32 noundef 62, i32 noundef %3, i32 noundef %4, ptr noundef nonnull @.str.756)
  %.not = icmp eq i16 %11, 0
  br i1 %.not, label %16, label %12

12:                                               ; preds = %10
  %13 = zext i16 %11 to i32
  %14 = add i32 %3, %13
  %15 = sub nsw i32 %4, %13
  br label %19

16:                                               ; preds = %10, %5
  %17 = tail call ptr @get_gsm_a_msg_string(i32 noundef 13, i32 noundef 62)
  %18 = tail call ptr (ptr, ptr, ptr, ptr, i32, i32, ptr, ...) @proto_tree_add_expert_format(ptr noundef %1, ptr noundef %2, ptr noundef nonnull @ei_bssgp_missing_mandatory_element, ptr noundef %0, i32 noundef %3, i32 noundef 0, ptr noundef nonnull @.str.6, i32 noundef 84, ptr noundef %17, ptr noundef nonnull @.str.756)
  br label %19

19:                                               ; preds = %16, %12
  %.052 = phi i32 [ %14, %12 ], [ %3, %16 ]
  %.0 = phi i32 [ %15, %12 ], [ %4, %16 ]
  %20 = icmp sgt i32 %.0, 0
  br i1 %20, label %21, label %27

21:                                               ; preds = %19
  %22 = tail call zeroext i16 @elem_telv(ptr noundef %0, ptr noundef %1, ptr noundef %2, i8 noundef zeroext 84, i32 noundef 13, i32 noundef 62, i32 noundef %.052, i32 noundef %.0, ptr noundef nonnull @.str.757)
  %.not59 = icmp eq i16 %22, 0
  br i1 %.not59, label %27, label %23

23:                                               ; preds = %21
  %24 = zext i16 %22 to i32
  %25 = add i32 %.052, %24
  %26 = sub nsw i32 %.0, %24
  br label %30

27:                                               ; preds = %21, %19
  %28 = tail call ptr @get_gsm_a_msg_string(i32 noundef 13, i32 noundef 62)
  %29 = tail call ptr (ptr, ptr, ptr, ptr, i32, i32, ptr, ...) @proto_tree_add_expert_format(ptr noundef %1, ptr noundef %2, ptr noundef nonnull @ei_bssgp_missing_mandatory_element, ptr noundef %0, i32 noundef %.052, i32 noundef 0, ptr noundef nonnull @.str.6, i32 noundef 84, ptr noundef %28, ptr noundef nonnull @.str.757)
  br label %30

30:                                               ; preds = %27, %23
  %.153 = phi i32 [ %25, %23 ], [ %.052, %27 ]
  %.1 = phi i32 [ %26, %23 ], [ %.0, %27 ]
  %31 = icmp sgt i32 %.1, 0
  br i1 %31, label %32, label %38

32:                                               ; preds = %30
  %33 = tail call zeroext i16 @elem_telv(ptr noundef %0, ptr noundef %1, ptr noundef %2, i8 noundef zeroext 89, i32 noundef 13, i32 noundef 55, i32 noundef %.153, i32 noundef %.1, ptr noundef null)
  %.not60 = icmp eq i16 %33, 0
  br i1 %.not60, label %38, label %34

34:                                               ; preds = %32
  %35 = zext i16 %33 to i32
  %36 = add i32 %.153, %35
  %37 = sub nsw i32 %.1, %35
  br label %41

38:                                               ; preds = %32, %30
  %39 = tail call ptr @get_gsm_a_msg_string(i32 noundef 13, i32 noundef 55)
  %40 = tail call ptr (ptr, ptr, ptr, ptr, i32, i32, ptr, ...) @proto_tree_add_expert_format(ptr noundef %1, ptr noundef %2, ptr noundef nonnull @ei_bssgp_missing_mandatory_element, ptr noundef %0, i32 noundef %.153, i32 noundef 0, ptr noundef nonnull @.str.6, i32 noundef 89, ptr noundef %39, ptr noundef nonnull @.str.7)
  br label %41

41:                                               ; preds = %38, %34
  %.254 = phi i32 [ %36, %34 ], [ %.153, %38 ]
  %.2 = phi i32 [ %37, %34 ], [ %.1, %38 ]
  %.not61 = icmp eq i32 %.2, 0
  br i1 %.not61, label %44, label %42

42:                                               ; preds = %41
  %43 = tail call ptr @proto_tree_add_expert(ptr noundef %1, ptr noundef %2, ptr noundef nonnull @ei_bssgp_extraneous_data, ptr noundef %0, i32 noundef %.254, i32 noundef %.2)
  br label %44

44:                                               ; preds = %42, %41
  ret void
}